target datalayout = "e-m:e-p270:32:32-p271:32:32-p272:64:64-i64:64-i128:128-f80:128-n8:16:32:64-S128"
target triple = "x86_64-pc-linux-gnu"

%struct.hwloc_topology = type { i32, i32, i32, ptr, ptr, i64, [20 x i32], [20 x i32], i64, i64, i32, ptr, i64, ptr, i64, [6 x %struct.hwloc_special_level_s], ptr, ptr, %struct.hwloc_binding_hooks, %struct.hwloc_topology_support, %struct.hwloc_infos_s, ptr, ptr, i32, ptr, ptr, i32, i32, ptr, i32, i32, ptr, i32, i32, i32, [5 x float], i32, ptr, ptr, i32, i32, ptr, i32, %struct.hwloc_numanode_attr_s, i32, i32, ptr, i64, i32, ptr, ptr, ptr }
%struct.hwloc_special_level_s = type { i32, ptr, ptr, ptr }
%struct.hwloc_binding_hooks = type { ptr, ptr, ptr, ptr, ptr, ptr, ptr, ptr, ptr, ptr, ptr, ptr, ptr, ptr, ptr, ptr, ptr, ptr, ptr, ptr, ptr, ptr, ptr, ptr }
%struct.hwloc_topology_support = type { ptr, ptr, ptr, ptr }
%struct.hwloc_infos_s = type { ptr, i32, i32 }
%struct.hwloc_numanode_attr_s = type { i64, i32, ptr }
%struct.hwloc_obj = type { i32, ptr, i32, ptr, i64, ptr, i32, i32, ptr, ptr, ptr, i32, ptr, ptr, i32, ptr, ptr, ptr, i32, i32, ptr, i32, ptr, i32, ptr, ptr, ptr, ptr, ptr, %struct.hwloc_infos_s, ptr, i64 }
%struct.hwloc_group_attr_s = type { i32, i32, i32, i8 }

; Function Attrs: nounwind uwtable
define i32 @hwloc_get_type_depth(ptr noundef %0, i32 noundef %1) #0 {
  %3 = alloca i32, align 4
  %4 = alloca ptr, align 8
  %5 = alloca i32, align 4
  store ptr %0, ptr %4, align 8, !tbaa !3
  store i32 %1, ptr %5, align 4, !tbaa !8
  %6 = load i32, ptr %5, align 4, !tbaa !8
  %7 = icmp uge i32 %6, 20
  br i1 %7, label %8, label %9

8:                                                ; preds = %2
  store i32 -1, ptr %3, align 4
  br label %16

9:                                                ; preds = %2
  %10 = load ptr, ptr %4, align 8, !tbaa !3
  %11 = getelementptr inbounds nuw %struct.hwloc_topology, ptr %10, i32 0, i32 6
  %12 = load i32, ptr %5, align 4, !tbaa !8
  %13 = zext i32 %12 to i64
  %14 = getelementptr inbounds nuw [20 x i32], ptr %11, i64 0, i64 %13
  %15 = load i32, ptr %14, align 4, !tbaa !8
  store i32 %15, ptr %3, align 4
  br label %16

16:                                               ; preds = %9, %8
  %17 = load i32, ptr %3, align 4
  ret i32 %17
}

; Function Attrs: nounwind uwtable
define i32 @hwloc_get_type_depth_with_attr(ptr noundef %0, i32 noundef %1, ptr noundef %2, i64 noundef %3) #0 {
  %5 = alloca ptr, align 8
  %6 = alloca i32, align 4
  %7 = alloca ptr, align 8
  %8 = alloca i64, align 8
  %9 = alloca i32, align 4
  %10 = alloca i32, align 4
  store ptr %0, ptr %5, align 8, !tbaa !3
  store i32 %1, ptr %6, align 4, !tbaa !8
  store ptr %2, ptr %7, align 8, !tbaa !68
  store i64 %3, ptr %8, align 8, !tbaa !53
  call void @llvm.lifetime.start.p0(i64 4, ptr %9) #10
  %11 = load i64, ptr %8, align 8, !tbaa !53
  %12 = icmp ult i64 %11, 48
  br i1 %12, label %13, label %14

13:                                               ; preds = %4
  store ptr null, ptr %7, align 8, !tbaa !68
  br label %14

14:                                               ; preds = %13, %4
  %15 = load ptr, ptr %5, align 8, !tbaa !3
  %16 = load i32, ptr %6, align 4, !tbaa !8
  %17 = call i32 @hwloc_get_type_depth(ptr noundef %15, i32 noundef %16)
  store i32 %17, ptr %9, align 4, !tbaa !8
  %18 = load i32, ptr %6, align 4, !tbaa !8
  %19 = icmp eq i32 %18, 13
  br i1 %19, label %20, label %76

20:                                               ; preds = %14
  %21 = load i32, ptr %9, align 4, !tbaa !8
  %22 = icmp eq i32 %21, -2
  br i1 %22, label %23, label %76

23:                                               ; preds = %20
  %24 = load ptr, ptr %7, align 8, !tbaa !68
  %25 = icmp ne ptr %24, null
  br i1 %25, label %26, label %76

26:                                               ; preds = %23
  %27 = load ptr, ptr %7, align 8, !tbaa !68
  %28 = getelementptr inbounds nuw %struct.hwloc_group_attr_s, ptr %27, i32 0, i32 0
  %29 = load i32, ptr %28, align 8, !tbaa !69
  %30 = icmp ne i32 %29, -1
  br i1 %30, label %31, label %76

31:                                               ; preds = %26
  call void @llvm.lifetime.start.p0(i64 4, ptr %10) #10
  store i32 -1, ptr %9, align 4, !tbaa !8
  store i32 0, ptr %10, align 4, !tbaa !8
  br label %32

32:                                               ; preds = %72, %31
  %33 = load i32, ptr %10, align 4, !tbaa !8
  %34 = load ptr, ptr %5, align 8, !tbaa !3
  %35 = getelementptr inbounds nuw %struct.hwloc_topology, ptr %34, i32 0, i32 1
  %36 = load i32, ptr %35, align 4, !tbaa !10
  %37 = icmp ult i32 %33, %36
  br i1 %37, label %38, label %75

38:                                               ; preds = %32
  %39 = load ptr, ptr %5, align 8, !tbaa !3
  %40 = getelementptr inbounds nuw %struct.hwloc_topology, ptr %39, i32 0, i32 4
  %41 = load ptr, ptr %40, align 8, !tbaa !34
  %42 = load i32, ptr %10, align 4, !tbaa !8
  %43 = zext i32 %42 to i64
  %44 = getelementptr inbounds nuw ptr, ptr %41, i64 %43
  %45 = load ptr, ptr %44, align 8, !tbaa !35
  %46 = getelementptr inbounds ptr, ptr %45, i64 0
  %47 = load ptr, ptr %46, align 8, !tbaa !37
  %48 = getelementptr inbounds nuw %struct.hwloc_obj, ptr %47, i32 0, i32 0
  %49 = load i32, ptr %48, align 8, !tbaa !39
  %50 = icmp eq i32 %49, 13
  br i1 %50, label %51, label %71

51:                                               ; preds = %38
  %52 = load ptr, ptr %5, align 8, !tbaa !3
  %53 = getelementptr inbounds nuw %struct.hwloc_topology, ptr %52, i32 0, i32 4
  %54 = load ptr, ptr %53, align 8, !tbaa !34
  %55 = load i32, ptr %10, align 4, !tbaa !8
  %56 = zext i32 %55 to i64
  %57 = getelementptr inbounds nuw ptr, ptr %54, i64 %56
  %58 = load ptr, ptr %57, align 8, !tbaa !35
  %59 = getelementptr inbounds ptr, ptr %58, i64 0
  %60 = load ptr, ptr %59, align 8, !tbaa !37
  %61 = getelementptr inbounds nuw %struct.hwloc_obj, ptr %60, i32 0, i32 5
  %62 = load ptr, ptr %61, align 8, !tbaa !72
  %63 = getelementptr inbounds nuw %struct.hwloc_group_attr_s, ptr %62, i32 0, i32 0
  %64 = load i32, ptr %63, align 8, !tbaa !69
  %65 = load ptr, ptr %7, align 8, !tbaa !68
  %66 = getelementptr inbounds nuw %struct.hwloc_group_attr_s, ptr %65, i32 0, i32 0
  %67 = load i32, ptr %66, align 8, !tbaa !69
  %68 = icmp eq i32 %64, %67
  br i1 %68, label %69, label %71

69:                                               ; preds = %51
  %70 = load i32, ptr %10, align 4, !tbaa !8
  store i32 %70, ptr %9, align 4, !tbaa !8
  br label %75

71:                                               ; preds = %51, %38
  br label %72

72:                                               ; preds = %71
  %73 = load i32, ptr %10, align 4, !tbaa !8
  %74 = add i32 %73, 1
  store i32 %74, ptr %10, align 4, !tbaa !8
  br label %32, !llvm.loop !73

75:                                               ; preds = %69, %32
  call void @llvm.lifetime.end.p0(i64 4, ptr %10) #10
  br label %76

76:                                               ; preds = %75, %26, %23, %20, %14
  %77 = load i32, ptr %9, align 4, !tbaa !8
  call void @llvm.lifetime.end.p0(i64 4, ptr %9) #10
  ret i32 %77
}