; Function Attrs: nofree norecurse nosync nounwind memory(read, inaccessiblemem: none) uwtable
define i32 @hwloc_get_type_depth_with_attr(ptr noundef readonly captures(none) %0, i32 noundef %1, ptr noundef readonly captures(address) %2, i64 noundef %3) local_unnamed_addr #2 {
  %5 = icmp ult i64 %3, 48
  %spec.select = select i1 %5, ptr null, ptr %2
  %6 = icmp ugt i32 %1, 19
  br i1 %6, label %hwloc_get_type_depth.exit.thread, label %hwloc_get_type_depth.exit

hwloc_get_type_depth.exit:                        ; preds = %4
  %7 = getelementptr inbounds nuw i8, ptr %0, i64 40
  %8 = zext nneg i32 %1 to i64
  %9 = getelementptr inbounds nuw [20 x i32], ptr %7, i64 0, i64 %8
  %10 = load i32, ptr %9, align 4, !tbaa !3
  %11 = icmp eq i32 %1, 13
  %12 = icmp eq i32 %10, -2
  %or.cond = select i1 %11, i1 %12, i1 false
  %13 = icmp ne ptr %spec.select, null
  %or.cond3 = and i1 %13, %or.cond
  br i1 %or.cond3, label %14, label %hwloc_get_type_depth.exit.thread

14:                                               ; preds = %hwloc_get_type_depth.exit
  %15 = load i32, ptr %spec.select, align 8, !tbaa !60
  %.not = icmp eq i32 %15, -1
  br i1 %.not, label %hwloc_get_type_depth.exit.thread, label %.preheader

.preheader:                                       ; preds = %14
  %16 = getelementptr inbounds nuw i8, ptr %0, i64 4
  %17 = load i32, ptr %16, align 4, !tbaa !7
  %.not28 = icmp eq i32 %17, 0
  br i1 %.not28, label %hwloc_get_type_depth.exit.thread, label %.lr.ph

.lr.ph:                                           ; preds = %.preheader
  %18 = getelementptr inbounds nuw i8, ptr %0, i64 24
  %19 = load ptr, ptr %18, align 8, !tbaa !32
  %wide.trip.count = zext i32 %17 to i64
  br label %20

20:                                               ; preds = %.lr.ph, %31
  %indvars.iv = phi i64 [ 0, %.lr.ph ], [ %indvars.iv.next, %31 ]
  %21 = getelementptr inbounds nuw ptr, ptr %19, i64 %indvars.iv
  %22 = load ptr, ptr %21, align 8, !tbaa !33
  %23 = load ptr, ptr %22, align 8, !tbaa !35
  %24 = load i32, ptr %23, align 8, !tbaa !37
  %25 = icmp eq i32 %24, 13
  br i1 %25, label %26, label %31

26:                                               ; preds = %20
  %27 = getelementptr inbounds nuw i8, ptr %23, i64 40
  %28 = load ptr, ptr %27, align 8, !tbaa !62
  %29 = load i32, ptr %28, align 8, !tbaa !60
  %30 = icmp eq i32 %29, %15
  br i1 %30, label %hwloc_get_type_depth.exit.thread.loopexit.split.loop.exit30, label %31

31:                                               ; preds = %20, %26
  %indvars.iv.next = add nuw nsw i64 %indvars.iv, 1
  %exitcond.not = icmp eq i64 %indvars.iv.next, %wide.trip.count
  br i1 %exitcond.not, label %hwloc_get_type_depth.exit.thread, label %20, !llvm.loop !63

hwloc_get_type_depth.exit.thread.loopexit.split.loop.exit30: ; preds = %26
  %32 = trunc nuw i64 %indvars.iv to i32
  br label %hwloc_get_type_depth.exit.thread

hwloc_get_type_depth.exit.thread:                 ; preds = %31, %hwloc_get_type_depth.exit.thread.loopexit.split.loop.exit30, %.preheader, %4, %14, %hwloc_get_type_depth.exit
  %.019 = phi i32 [ -2, %14 ], [ %10, %hwloc_get_type_depth.exit ], [ -1, %4 ], [ -1, %.preheader ], [ %32, %hwloc_get_type_depth.exit.thread.loopexit.split.loop.exit30 ], [ -1, %31 ]
  ret i32 %.019
}